(dp0
VDZA
p1
VAlgeria
p2
sVAGO
p3
VAngola
p4
sVEGY
p5
VEgypt
p6
sVBGD
p7
VBangladesh
p8
sVNER
p9
VNiger
p10
sVQAT
p11
VQatar
p12
sVNAM
p13
VNamibia
p14
sVBGR
p15
VBulgaria
p16
sVBOL
p17
VBolivia (Plurinational State of)
p18
sVGHA
p19
VGhana
p20
sVPAK
p21
VPakistan
p22
sVCPV
p23
VCabo Verde
p24
sVJOR
p25
VJordan
p26
sVLBR
p27
VLiberia
p28
sVLBY
p29
VLibya
p30
sVMYS
p31
VMalaysia
p32
sVPRK
p33
VDemocratic People's Republic of Korea
p34
sVTZA
p35
VUnited Republic of Tanzania
p36
sVBWA
p37
VBotswana
p38
sVKHM
p39
VCambodia
p40
sVTTO
p41
VTrinidad and Tobago
p42
sVPRY
p43
VParaguay
p44
sVSAU
p45
VSaudi Arabia
p46
sVLBN
p47
VLebanon
p48
sVSVN
p49
VSlovenia
p50
sVBFA
p51
VBurkina Faso
p52
sVSVK
p53
VSlovakia
p54
sVMRT
p55
VMauritania
p56
sVHRV
p57
VCroatia
p58
sVCHL
p59
VChile
p60
sVCHN
p61
VChina
p62
sVKNA
p63
VSaint Kitts and Nevis
p64
sVJAM
p65
VJamaica
p66
sVSMR
p67
VSan Marino
p68
sVDJI
p69
VDjibouti
p70
sVGIN
p71
VGuinea
p72
sVFIN
p73
VFinland
p74
sVURY
p75
VUruguay
p76
sVTHA
p77
VThailand
p78
sVSYC
p79
VSeychelles
p80
sVNPL
p81
VNepal
p82
sVLAO
p83
VLao People's Democratic Republic
p84
sVYEM
p85
VYemen
p86
sVPHL
p87
VPhilippines
p88
sVZAF
p89
VSouth Africa
p90
sVKIR
p91
VKiribati
p92
sVTGO
p93
VTogo
p94
sVSYR
p95
VSyrian Arab Republic
p96
sVNIC
p97
VNicaragua
p98
sVMLT
p99
VMalta
p100
sVKAZ
p101
VKazakhstan
p102
sVNIU
p103
VNiue
p104
sVDMA
p105
VDominica
p106
sVBEN
p107
VBenin
p108
sVNGA
p109
VNigeria
p110
sVBEL
p111
VBelgium
p112
sVDEU
p113
VGermany
p114
sVLKA
p115
VSri Lanka
p116
sVGBR
p117
VUnited Kingdom of Great Britain and Northern Ireland
p118
sVGUY
p119
VGuyana
p120
sVCRI
p121
VCosta Rica
p122
sVCOK
p123
VCook Islands
p124
sVMAR
p125
VMorocco
p126
sVLSO
p127
VLesotho
p128
sVHUN
p129
VHungary
p130
sVTKM
p131
VTurkmenistan
p132
sVSUR
p133
VSuriname
p134
sVNLD
p135
VNetherlands
p136
sVTCD
p137
VChad
p138
sVGEO
p139
VGeorgia
p140
sVROU
p141
VRomania
p142
sVMNG
p143
VMongolia
p144
sVMHL
p145
VMarshall Islands
p146
sVBLZ
p147
VBelize
p148
sVMMR
p149
VMyanmar
p150
sVAFG
p151
VAfghanistan
p152
sVBDI
p153
VBurundi
p154
sVBLR
p155
VBelarus
p156
sVGRD
p157
VGrenada
p158
sVGRC
p159
VGreece
p160
sVMNE
p161
VMontenegro
p162
sVAND
p163
VAndorra
p164
sVMOZ
p165
VMozambique
p166
sVTJK
p167
VTajikistan
p168
sVHTI
p169
VHaiti
p170
sVMEX
p171
VMexico
p172
sVZWE
p173
VZimbabwe
p174
sVLCA
p175
VSaint Lucia
p176
sVIND
p177
VIndia
p178
sVLVA
p179
VLatvia
p180
sVBTN
p181
VBhutan
p182
sVVCT
p183
VSaint Vincent and the Grenadines
p184
sVVNM
p185
VViet Nam
p186
sVNOR
p187
VNorway
p188
sVCZE
p189
VCzech Republic
p190
sVATG
p191
VAntigua and Barbuda
p192
sVFJI
p193
VFiji
p194
sVHND
p195
VHonduras
p196
sVMUS
p197
VMauritius
p198
sVDOM
p199
VDominican Republic
p200
sVLUX
p201
VLuxembourg
p202
sVISR
p203
VIsrael
p204
sVFSM
p205
VMicronesia (Federated States of)
p206
sVPER
p207
VPeru
p208
sVIDN
p209
VIndonesia
p210
sVVUT
p211
VVanuatu
p212
sVMKD
p213
VThe former Yugoslav republic of Macedonia
p214
sVCOD
p215
VDemocratic Republic of the Congo
p216
sVCOG
p217
VCongo
p218
sVISL
p219
VIceland
p220
sVETH
p221
VEthiopia
p222
sVCOM
p223
VComoros
p224
sVCOL
p225
VColombia
p226
sVPRT
p227
VPortugal
p228
sVMDA
p229
VRepublic of Moldova
p230
sVSTP
p231
VSao Tome and Principe
p232
sVMDG
p233
VMadagascar
p234
sVECU
p235
VEcuador
p236
sVSEN
p237
VSenegal
p238
sVMDV
p239
VMaldives
p240
sVSRB
p241
VSerbia
p242
sVFRA
p243
VFrance
p244
sVLTU
p245
VLithuania
p246
sVRWA
p247
VRwanda
p248
sVZMB
p249
VZambia
p250
sVGMB
p251
VGambia
p252
sVGTM
p253
VGuatemala
p254
sVDNK
p255
VDenmark
p256
sVUKR
p257
VUkraine
p258
sVAUS
p259
VAustralia
p260
sVAUT
p261
VAustria
p262
sVVEN
p263
VVenezuela (Bolivarian Republic of)
p264
sVPLW
p265
VPalau
p266
sVKEN
p267
VKenya
p268
sVTUR
p269
VTurkey
p270
sVALB
p271
VAlbania
p272
sVOMN
p273
VOman
p274
sVTUV
p275
VTuvalu
p276
sVITA
p277
VItaly
p278
sVBRN
p279
VBrunei Darussalam
p280
sVTUN
p281
VTunisia
p282
sVRUS
p283
VRussian Federation
p284
sNVFemale
p285
sVBRB
p286
VBarbados
p287
sVBRA
p288
VBrazil
p289
sVCIV
p290
VCote d'Ivoire
p291
sVTLS
p292
VTimor-Leste
p293
sVGNQ
p294
VEquatorial Guinea
p295
sVUSA
p296
VUnited States of America
p297
sVWSM
p298
VSamoa
p299
sVAZE
p300
VAzerbaijan
p301
sVGNB
p302
VGuinea-Bissau
p303
sVSWZ
p304
VSwaziland
p305
sVTON
p306
VTonga
p307
sVCAN
p308
VCanada
p309
sVKOR
p310
VRepublic of Korea
p311
sVCAF
p312
VCentral African Republic
p313
sVCHE
p314
VSwitzerland
p315
sVCYP
p316
VCyprus
p317
sVBIH
p318
VBosnia and Herzegovina
p319
sVSGP
p320
VSingapore
p321
sVSOM
p322
VSomalia
p323
sVUZB
p324
VUzbekistan
p325
sVCMR
p326
VCameroon
p327
sVPOL
p328
VPoland
p329
sVKWT
p330
VKuwait
p331
sVERI
p332
VEritrea
p333
sVGAB
p334
VGabon
p335
sVARE
p336
VUnited Arab Emirates
p337
sVEST
p338
VEstonia
p339
sVMWI
p340
VMalawi
p341
sVESP
p342
VSpain
p343
sVIRQ
p344
VIraq
p345
sVSLV
p346
VEl Salvador
p347
sVMLI
p348
VMali
p349
sVIRL
p350
VIreland
p351
sVIRN
p352
VIran (Islamic Republic of)
p353
sVSSD
p354
VSouth Sudan
p355
sVSLE
p356
VSierra Leone
p357
sVPAN
p358
VPanama
p359
sVSDN
p360
VSudan
p361
sVSLB
p362
VSolomon Islands
p363
sVNZL
p364
VNew Zealand
p365
sVJPN
p366
VJapan
p367
sVKGZ
p368
VKyrgyzstan
p369
sVUGA
p370
VUganda
p371
sVPNG
p372
VPapua New Guinea
p373
sVARG
p374
VArgentina
p375
sVSWE
p376
VSweden
p377
sVBHS
p378
VBahamas
p379
sVBHR
p380
VBahrain
p381
sVARM
p382
VArmenia
p383
sVNRU
p384
VNauru
p385
sVCUB
p386
VCuba
p387
s.